target datalayout = "e-m:e-p270:32:32-p271:32:32-p272:64:64-i64:64-i128:128-f80:128-n8:16:32:64-S128"
target triple = "x86_64-pc-linux-gnu"

%class.LogTagSet = type { ptr, i64, [5 x i32], [4 x i8], %class.LogOutputList, %class.LogDecorators, ptr }
%class.LogOutputList = type <{ [6 x ptr], i32, [4 x i8] }>
%class.LogDecorators = type { i32 }
%class.G1CMIsAliveClosure = type { %class.BoolObjectClosure, ptr }
%class.BoolObjectClosure = type { ptr }
%class.BitMap = type { ptr, i64 }
%class.G1MappingChangedListener = type { ptr }
%class.MemRegion = type { ptr, i64 }
%class.G1CMSubjectToDiscoveryClosure = type { %class.BoolObjectClosure, ptr }
%class.G1STWIsAliveClosure = type { %class.BoolObjectClosure, ptr }
%class.TimeInstant = type { %class.CompositeCounterRepresentation }
%class.CompositeCounterRepresentation = type { %class.Representation }
%class.Representation = type { %class.PairRep }
%class.PairRep = type { i64, i64 }
%class.G1Policy = type { ptr, %class.G1Predictions, ptr, %class.G1RemSetTrackingPolicy, ptr, %class.G1OldGenAllocationTracker, ptr, ptr, double, i32, i32, i32, ptr, ptr, double, i32, %class.G1YoungGenSizer, i32, i64, i64, %class.G1ConcurrentStartToMixedTimeTracker, ptr, ptr, ptr, ptr, double, double, i32, i32, %class.AgeTable }
%class.G1Predictions = type { double }
%class.G1RemSetTrackingPolicy = type { i8 }
%class.G1OldGenAllocationTracker = type { i64, i64, i64, i64, i64 }
%class.G1YoungGenSizer = type { ptr, i32, i8, i32, i32 }
%class.G1ConcurrentStartToMixedTimeTracker = type { i8, double, double, double }
%class.AgeTable = type { [16 x i64], i8, [16 x ptr] }
%class.G1CollectedHeap = type { %class.CollectedHeap, ptr, ptr, ptr, ptr, ptr, %class.TimeInstant, %class.G1HeapRegionSet, %class.G1HeapRegionSet, %class.G1MonotonicArenaMemoryStats, %class.G1MonotonicArenaMemoryStats, ptr, %class.G1RegionMappingChangedListener, ptr, %class.G1HeapRegionManager, ptr, %class.G1YoungGCAllocationFailureInjector, ptr, i64, i64, %class.G1EvacStats, %class.G1EvacStats, ptr, i32, i32, %class.G1CollectorState, i32, i32, %class.G1EdenRegions, %class.G1SurvivorRegions, ptr, ptr, ptr, ptr, %class.G1CollectionSet, ptr, %class.G1CardSetConfiguration, %class.G1MonotonicArenaFreePool, ptr, ptr, ptr, ptr, ptr, %class.G1STWIsAliveClosure, %class.G1STWSubjectToDiscoveryClosure, ptr, %class.G1CMIsAliveClosure, %class.G1CMSubjectToDiscoveryClosure, %class.G1HeapRegionAttrBiasedMappedArray }
%class.CollectedHeap = type { ptr, ptr, i64, i64, %class.SoftRefPolicy, %class.MemRegion, i8, i64, i32, i32, i32, i32, ptr, ptr }
%class.SoftRefPolicy = type { i8, i8 }
%class.G1HeapRegionSet = type { %class.G1HeapRegionSetBase.base, [7 x i8] }
%class.G1HeapRegionSetBase.base = type <{ ptr, ptr, i32, [4 x i8], ptr, i8 }>
%class.G1MonotonicArenaMemoryStats = type { [4 x i64], [4 x i64] }
%class.G1RegionMappingChangedListener = type { %class.G1MappingChangedListener }
%class.G1HeapRegionManager = type { ptr, ptr, %class.G1CommittedRegionMap, i32, [4 x i8], %class.G1HeapRegionTable, ptr, ptr, %class.G1FreeRegionList }
%class.G1CommittedRegionMap = type { ptr, %class.CHeapBitMap, %class.CHeapBitMap, i32, i32 }
%class.CHeapBitMap = type <{ %class.GrowableBitMap, i8, [7 x i8] }>
%class.GrowableBitMap = type { %class.BitMap }
%class.G1HeapRegionTable = type { %class.G1BiasedMappedArray.base, [4 x i8] }
%class.G1BiasedMappedArray.base = type { %class.G1BiasedMappedArrayBase.base }
%class.G1BiasedMappedArrayBase.base = type <{ ptr, ptr, ptr, i64, ptr, i64, i32 }>
%class.G1FreeRegionList = type { %class.G1HeapRegionSetBase.base, ptr, ptr, ptr, ptr }
%class.G1YoungGCAllocationFailureInjector = type { i8 }
%class.G1EvacStats = type { %class.PLABStats, i64, i64, %class.AdaptiveWeightedAverage, i64, i32, i64, i64, i64, i64, i64 }
%class.PLABStats = type { ptr, ptr, i64, i64, i64, i64 }
%class.AdaptiveWeightedAverage = type { float, i32, i32, i8, float }
%class.G1CollectorState = type { i8, i8, i8, i8, i8, i8, i8 }
%class.G1EdenRegions = type { i32, i64, %class.G1RegionsOnNodes }
%class.G1RegionsOnNodes = type { ptr, ptr }
%class.G1SurvivorRegions = type { ptr, i64, %class.G1RegionsOnNodes }
%class.G1CollectionSet = type { ptr, ptr, %class.G1CollectionSetCandidates, ptr, i32, i32, i32, i32, i32, %class.G1CollectionCandidateRegionList, i32, i64 }
%class.G1CollectionSetCandidates = type { [8 x i8], %class.G1CollectionCandidateList, %class.G1CollectionCandidateList, ptr, i32, i32 }
%class.G1CollectionCandidateList = type { %class.GrowableArray }
%class.GrowableArray = type { %class.GrowableArrayWithAllocator, %class.GrowableArrayMetadata }
%class.GrowableArrayWithAllocator = type { %class.GrowableArrayView }
%class.GrowableArrayView = type { %class.GrowableArrayBase, ptr }
%class.GrowableArrayBase = type { i32, i32 }
%class.GrowableArrayMetadata = type { i64 }
%class.G1CollectionCandidateRegionList = type { %class.GrowableArray.2 }
%class.GrowableArray.2 = type { %class.GrowableArrayWithAllocator.3, %class.GrowableArrayMetadata }
%class.GrowableArrayWithAllocator.3 = type { %class.GrowableArrayView.4 }
%class.GrowableArrayView.4 = type { %class.GrowableArrayBase, ptr }
%class.G1CardSetConfiguration = type { i32, i32, i32, i32, i32, i32, i32, i32, i32, i32, i32, ptr }
%class.G1MonotonicArenaFreePool = type { i32, ptr }
%class.G1STWSubjectToDiscoveryClosure = type { %class.BoolObjectClosure, ptr }
%class.G1HeapRegionAttrBiasedMappedArray = type { %class.G1BiasedMappedArray.base.6, [4 x i8] }
%class.G1BiasedMappedArray.base.6 = type { %class.G1BiasedMappedArrayBase.base }
%class.G1MMUTracker = type <{ double, double, [64 x %class.G1MMUTrackerElem], i32, i32, i32, [4 x i8] }>
%class.G1MMUTrackerElem = type { double, double }

@.str.5 = private unnamed_addr constant [66 x i8] c"Predicted total base time: total %f base_time %f retained_time %f\00", align 1
@.str.6 = private unnamed_addr constant [190 x i8] c"Young desired length %u survivor length %u allocated young length %u absolute min young length %u absolute max young length %u desired eden length by mmu %u desired eden length by pause %u \00", align 1
@_ZN16LogTagSetMappingILN6LogTag4typeE49ELS1_40ELS1_52ELS1_0ELS1_0ELS1_0EE7_tagsetE = linkonce_odr hidden global %class.LogTagSet zeroinitializer, comdat, align 8

; Function Attrs: mustprogress nounwind uwtable
define linkonce_odr hidden noundef zeroext i1 @_ZNK13LogOutputList8is_levelEN8LogLevel4typeE(ptr noundef nonnull align 8 dereferenceable(52) %0, i32 noundef %1) #1 comdat align 2 {
  %3 = alloca ptr, align 8
  %4 = alloca i32, align 4
  store ptr %0, ptr %3, align 8
  store i32 %1, ptr %4, align 4
  %5 = load ptr, ptr %3, align 8
  %6 = getelementptr inbounds %class.LogOutputList, ptr %5, i32 0, i32 0
  %7 = load i32, ptr %4, align 4
  %8 = zext i32 %7 to i64
  %9 = getelementptr inbounds [6 x ptr], ptr %6, i64 0, i64 %8
  %10 = load volatile ptr, ptr %9, align 8
  %11 = icmp ne ptr %10, null
  ret i1 %11
}

; Function Attrs: mustprogress nounwind uwtable
define linkonce_odr hidden noundef double @_ZNK12G1MMUTracker11max_gc_timeEv(ptr noundef nonnull align 8 dereferenceable(1052) %0) #1 comdat align 2 {
  %2 = alloca ptr, align 8
  store ptr %0, ptr %2, align 8
  %3 = load ptr, ptr %2, align 8
  %4 = getelementptr inbounds %class.G1MMUTracker, ptr %3, i32 0, i32 1
  %5 = load double, ptr %4, align 8
  ret double %5
}

; Function Attrs: mustprogress nounwind uwtable
define linkonce_odr hidden noundef i32 @_Z4MIN2IjET_S0_S0_(i32 noundef %0, i32 noundef %1) #1 comdat {
  %3 = alloca i32, align 4
  %4 = alloca i32, align 4
  store i32 %0, ptr %3, align 4
  store i32 %1, ptr %4, align 4
  %5 = load i32, ptr %3, align 4
  %6 = load i32, ptr %4, align 4
  %7 = icmp ult i32 %5, %6
  br i1 %7, label %8, label %10

8:                                                ; preds = %2
  %9 = load i32, ptr %3, align 4
  br label %12

10:                                               ; preds = %2
  %11 = load i32, ptr %4, align 4
  br label %12

12:                                               ; preds = %10, %8
  %13 = phi i32 [ %9, %8 ], [ %11, %10 ]
  ret i32 %13
}

; Function Attrs: mustprogress nounwind uwtable
define linkonce_odr hidden noundef zeroext i1 @_ZNK9LogTagSet8is_levelEN8LogLevel4typeE(ptr noundef nonnull align 8 dereferenceable(112) %0, i32 noundef %1) #1 comdat align 2 {
  %3 = alloca ptr, align 8
  %4 = alloca i32, align 4
  store ptr %0, ptr %3, align 8
  store i32 %1, ptr %4, align 4
  %5 = load ptr, ptr %3, align 8
  %6 = getelementptr inbounds %class.LogTagSet, ptr %5, i32 0, i32 4
  %7 = load i32, ptr %4, align 4
  %8 = call noundef zeroext i1 @_ZNK13LogOutputList8is_levelEN8LogLevel4typeE(ptr noundef nonnull align 8 dereferenceable(52) %6, i32 noundef %7)
  ret i1 %8
}

; Function Attrs: mustprogress nounwind uwtable
define linkonce_odr hidden noundef nonnull align 8 dereferenceable(112) ptr @_ZN16LogTagSetMappingILN6LogTag4typeE49ELS1_40ELS1_52ELS1_0ELS1_0ELS1_0EE6tagsetEv() #1 comdat align 2 {
  ret ptr @_ZN16LogTagSetMappingILN6LogTag4typeE49ELS1_40ELS1_52ELS1_0ELS1_0ELS1_0EE7_tagsetE
}

; Function Attrs: mustprogress nounwind uwtable
define linkonce_odr hidden noundef double @_ZNK12G1MMUTracker15when_max_gc_secEd(ptr noundef nonnull align 8 dereferenceable(1052) %0, double noundef %1) #1 comdat align 2 {
  %3 = alloca ptr, align 8
  %4 = alloca double, align 8
  store ptr %0, ptr %3, align 8
  store double %1, ptr %4, align 8
  %5 = load ptr, ptr %3, align 8
  %6 = load double, ptr %4, align 8
  %7 = call noundef double @_ZNK12G1MMUTracker11max_gc_timeEv(ptr noundef nonnull align 8 dereferenceable(1052) %5)
  %8 = call noundef double @_ZNK12G1MMUTracker8when_secEdd(ptr noundef nonnull align 8 dereferenceable(1052) %5, double noundef %6, double noundef %7)
  ret double %8
}

; Function Attrs: mustprogress nounwind uwtable
define linkonce_odr hidden noundef zeroext i1 @_ZNK15G1YoungGenSizer30use_adaptive_young_list_lengthEv(ptr noundef nonnull align 8 dereferenceable(24) %0) #1 comdat align 2 {
  %2 = alloca ptr, align 8
  store ptr %0, ptr %2, align 8
  %3 = load ptr, ptr %2, align 8
  %4 = getelementptr inbounds %class.G1YoungGenSizer, ptr %3, i32 0, i32 2
  %5 = load i8, ptr %4, align 4
  %6 = trunc i8 %5 to i1
  ret i1 %6
}

; Function Attrs: mustprogress nounwind uwtable
define linkonce_odr hidden noundef i32 @_ZNK13G1EdenRegions6lengthEv(ptr noundef nonnull align 8 dereferenceable(32) %0) #1 comdat align 2 {
  %2 = alloca ptr, align 8
  store ptr %0, ptr %2, align 8
  %3 = load ptr, ptr %2, align 8
  %4 = getelementptr inbounds %class.G1EdenRegions, ptr %3, i32 0, i32 0
  %5 = load i32, ptr %4, align 8
  ret i32 %5
}

; Function Attrs: mustprogress nounwind uwtable
define linkonce_odr hidden noundef i32 @_Z5clampIjET_S0_S0_S0_(i32 noundef %0, i32 noundef %1, i32 noundef %2) #1 comdat {
  %4 = alloca i32, align 4
  %5 = alloca i32, align 4
  %6 = alloca i32, align 4
  store i32 %0, ptr %4, align 4
  store i32 %1, ptr %5, align 4
  store i32 %2, ptr %6, align 4
  %7 = load i32, ptr %4, align 4
  %8 = load i32, ptr %5, align 4
  %9 = call noundef i32 @_Z4MAX2IjET_S0_S0_(i32 noundef %7, i32 noundef %8)
  %10 = load i32, ptr %6, align 4
  %11 = call noundef i32 @_Z4MIN2IjET_S0_S0_(i32 noundef %9, i32 noundef %10)
  ret i32 %11
}

; Function Attrs: mustprogress nounwind uwtable
define linkonce_odr hidden noundef zeroext i1 @_ZN7LogImplILN6LogTag4typeE49ELS1_40ELS1_52ELS1_0ELS1_0ELS1_0EE8is_levelEN8LogLevel4typeE(i32 noundef %0) #1 comdat align 2 {
  %2 = alloca i32, align 4
  store i32 %0, ptr %2, align 4
  %3 = call noundef nonnull align 8 dereferenceable(112) ptr @_ZN16LogTagSetMappingILN6LogTag4typeE49ELS1_40ELS1_52ELS1_0ELS1_0ELS1_0EE6tagsetEv()
  %4 = load i32, ptr %2, align 4
  %5 = call noundef zeroext i1 @_ZNK9LogTagSet8is_levelEN8LogLevel4typeE(ptr noundef nonnull align 8 dereferenceable(112) %3, i32 noundef %4)
  ret i1 %5
}

; Function Attrs: mustprogress nounwind uwtable
define hidden noundef i32 @_ZNK8G1Policy36calculate_desired_eden_length_by_mmuEv(ptr noundef nonnull align 8 dereferenceable(552) %0) #1 align 2 {
  %2 = alloca ptr, align 8
  %3 = alloca double, align 8
  %4 = alloca double, align 8
  %5 = alloca double, align 8
  store ptr %0, ptr %2, align 8
  %6 = load ptr, ptr %2, align 8
  %7 = call noundef double @_ZN2os11elapsedTimeEv()
  store double %7, ptr %3, align 8
  %8 = getelementptr inbounds %class.G1Policy, ptr %6, i32 0, i32 4
  %9 = load ptr, ptr %8, align 8
  %10 = load double, ptr %3, align 8
  %11 = call noundef double @_ZNK12G1MMUTracker15when_max_gc_secEd(ptr noundef nonnull align 8 dereferenceable(1052) %9, double noundef %10)
  %12 = fmul double %11, 1.000000e+03
  store double %12, ptr %4, align 8
  %13 = getelementptr inbounds %class.G1Policy, ptr %6, i32 0, i32 2
  %14 = load ptr, ptr %13, align 8
  %15 = call noundef double @_ZNK11G1Analytics21predict_alloc_rate_msEv(ptr noundef nonnull align 8 dereferenceable(2048) %14)
  store double %15, ptr %5, align 8
  %16 = load double, ptr %5, align 8
  %17 = load double, ptr %4, align 8
  %18 = fmul double %16, %17
  %19 = call double @llvm.ceil.f64(double %18)
  %20 = fptoui double %19 to i32
  ret i32 %20
}

; Function Attrs: mustprogress nounwind uwtable
define hidden noundef zeroext i1 @_ZNK8G1Policy30use_adaptive_young_list_lengthEv(ptr noundef nonnull align 8 dereferenceable(552) %0) #1 align 2 {
  %2 = alloca ptr, align 8
  store ptr %0, ptr %2, align 8
  %3 = load ptr, ptr %2, align 8
  %4 = getelementptr inbounds %class.G1Policy, ptr %3, i32 0, i32 16
  %5 = call noundef zeroext i1 @_ZNK15G1YoungGenSizer30use_adaptive_young_list_lengthEv(ptr noundef nonnull align 8 dereferenceable(24) %4)
  ret i1 %5
}

; Function Attrs: mustprogress nounwind uwtable
define linkonce_odr hidden noundef i32 @_Z4MAX2IjET_S0_S0_(i32 noundef %0, i32 noundef %1) #1 comdat {
  %3 = alloca i32, align 4
  %4 = alloca i32, align 4
  store i32 %0, ptr %3, align 4
  store i32 %1, ptr %4, align 4
  %5 = load i32, ptr %3, align 4
  %6 = load i32, ptr %4, align 4
  %7 = icmp ugt i32 %5, %6
  br i1 %7, label %8, label %10

8:                                                ; preds = %2
  %9 = load i32, ptr %3, align 4
  br label %12

10:                                               ; preds = %2
  %11 = load i32, ptr %4, align 4
  br label %12

12:                                               ; preds = %10, %8
  %13 = phi i32 [ %9, %8 ], [ %11, %10 ]
  ret i32 %13
}

; Function Attrs: mustprogress nounwind uwtable
define linkonce_odr hidden noundef i32 @_Z4MAX3IjET_S0_S0_S0_(i32 noundef %0, i32 noundef %1, i32 noundef %2) #1 comdat {
  %4 = alloca i32, align 4
  %5 = alloca i32, align 4
  %6 = alloca i32, align 4
  store i32 %0, ptr %4, align 4
  store i32 %1, ptr %5, align 4
  store i32 %2, ptr %6, align 4
  %7 = load i32, ptr %4, align 4
  %8 = load i32, ptr %5, align 4
  %9 = call noundef i32 @_Z4MAX2IjET_S0_S0_(i32 noundef %7, i32 noundef %8)
  %10 = load i32, ptr %6, align 4
  %11 = call noundef i32 @_Z4MAX2IjET_S0_S0_(i32 noundef %9, i32 noundef %10)
  ret i32 %11
}

; Function Attrs: mustprogress nounwind uwtable
define linkonce_odr hidden noundef i32 @_ZNK15G1CollectedHeap19young_regions_countEv(ptr noundef nonnull align 8 dereferenceable(1488) %0) #1 comdat align 2 {
  %2 = alloca ptr, align 8
  store ptr %0, ptr %2, align 8
  %3 = load ptr, ptr %2, align 8
  %4 = getelementptr inbounds %class.G1CollectedHeap, ptr %3, i32 0, i32 28
  %5 = call noundef i32 @_ZNK13G1EdenRegions6lengthEv(ptr noundef nonnull align 8 dereferenceable(32) %4)
  %6 = getelementptr inbounds %class.G1CollectedHeap, ptr %3, i32 0, i32 29
  %7 = call noundef i32 @_ZNK17G1SurvivorRegions6lengthEv(ptr noundef nonnull align 8 dereferenceable(32) %6)
  %8 = add i32 %5, %7
  ret i32 %8
}

; Function Attrs: mustprogress nounwind uwtable
define linkonce_odr hidden noundef i32 @_ZNK15G1CollectedHeap22survivor_regions_countEv(ptr noundef nonnull align 8 dereferenceable(1488) %0) #1 comdat align 2 {
  %2 = alloca ptr, align 8
  store ptr %0, ptr %2, align 8
  %3 = load ptr, ptr %2, align 8
  %4 = getelementptr inbounds %class.G1CollectedHeap, ptr %3, i32 0, i32 29
  %5 = call noundef i32 @_ZNK17G1SurvivorRegions6lengthEv(ptr noundef nonnull align 8 dereferenceable(32) %4)
  ret i32 %5
}

; Function Attrs: mustprogress nounwind uwtable
define linkonce_odr hidden noundef i32 @_ZNK15G1YoungGenSizer24max_desired_young_lengthEv(ptr noundef nonnull align 8 dereferenceable(24) %0) #1 comdat align 2 {
  %2 = alloca ptr, align 8
  store ptr %0, ptr %2, align 8
  %3 = load ptr, ptr %2, align 8
  %4 = getelementptr inbounds %class.G1YoungGenSizer, ptr %3, i32 0, i32 4
  %5 = load i32, ptr %4, align 4
  ret i32 %5
}

; Function Attrs: mustprogress nounwind uwtable
define linkonce_odr hidden noundef i32 @_ZNK15G1YoungGenSizer24min_desired_young_lengthEv(ptr noundef nonnull align 8 dereferenceable(24) %0) #1 comdat align 2 {
  %2 = alloca ptr, align 8
  store ptr %0, ptr %2, align 8
  %3 = load ptr, ptr %2, align 8
  %4 = getelementptr inbounds %class.G1YoungGenSizer, ptr %3, i32 0, i32 3
  %5 = load i32, ptr %4, align 8
  ret i32 %5
}

; Function Attrs: mustprogress nounwind uwtable
define hidden noundef i32 @_ZNK8G1Policy30calculate_young_desired_lengthEmmm(ptr noundef nonnull align 8 dereferenceable(552) %0, i64 noundef %1, i64 noundef %2, i64 noundef %3) #1 align 2 {
  %5 = alloca ptr, align 8
  %6 = alloca i64, align 8
  %7 = alloca i64, align 8
  %8 = alloca i64, align 8
  %9 = alloca i32, align 4
  %10 = alloca i32, align 4
  %11 = alloca i32, align 4
  %12 = alloca i32, align 4
  %13 = alloca i32, align 4
  %14 = alloca i32, align 4
  %15 = alloca i32, align 4
  %16 = alloca i32, align 4
  %17 = alloca i32, align 4
  %18 = alloca double, align 8
  %19 = alloca double, align 8
  %20 = alloca double, align 8
  %21 = alloca i32, align 4
  store ptr %0, ptr %5, align 8
  store i64 %1, ptr %6, align 8
  store i64 %2, ptr %7, align 8
  store i64 %3, ptr %8, align 8
  %22 = load ptr, ptr %5, align 8
  %23 = getelementptr inbounds %class.G1Policy, ptr %22, i32 0, i32 16
  %24 = call noundef i32 @_ZNK15G1YoungGenSizer24min_desired_young_lengthEv(ptr noundef nonnull align 8 dereferenceable(24) %23)
  store i32 %24, ptr %9, align 4
  %25 = getelementptr inbounds %class.G1Policy, ptr %22, i32 0, i32 16
  %26 = call noundef i32 @_ZNK15G1YoungGenSizer24max_desired_young_lengthEv(ptr noundef nonnull align 8 dereferenceable(24) %25)
  store i32 %26, ptr %10, align 4
  %27 = getelementptr inbounds %class.G1Policy, ptr %22, i32 0, i32 22
  %28 = load ptr, ptr %27, align 8
  %29 = call noundef i32 @_ZNK15G1CollectedHeap22survivor_regions_countEv(ptr noundef nonnull align 8 dereferenceable(1488) %28)
  store i32 %29, ptr %11, align 4
  %30 = getelementptr inbounds %class.G1Policy, ptr %22, i32 0, i32 22
  %31 = load ptr, ptr %30, align 8
  %32 = call noundef i32 @_ZNK15G1CollectedHeap19young_regions_countEv(ptr noundef nonnull align 8 dereferenceable(1488) %31)
  store i32 %32, ptr %12, align 4
  %33 = load i32, ptr %9, align 4
  %34 = load i32, ptr %11, align 4
  %35 = add i32 %34, 1
  %36 = load i32, ptr %12, align 4
  %37 = call noundef i32 @_Z4MAX3IjET_S0_S0_S0_(i32 noundef %33, i32 noundef %35, i32 noundef %36)
  store i32 %37, ptr %13, align 4
  %38 = load i32, ptr %10, align 4
  %39 = load i32, ptr %13, align 4
  %40 = call noundef i32 @_Z4MAX2IjET_S0_S0_(i32 noundef %38, i32 noundef %39)
  store i32 %40, ptr %14, align 4
  store i32 0, ptr %15, align 4
  store i32 0, ptr %16, align 4
  store i32 0, ptr %17, align 4
  %41 = call noundef zeroext i1 @_ZNK8G1Policy30use_adaptive_young_list_lengthEv(ptr noundef nonnull align 8 dereferenceable(552) %22)
  br i1 %41, label %42, label %73

42:                                               ; preds = %4
  %43 = call noundef i32 @_ZNK8G1Policy36calculate_desired_eden_length_by_mmuEv(ptr noundef nonnull align 8 dereferenceable(552) %22)
  store i32 %43, ptr %15, align 4
  %44 = load i64, ptr %6, align 8
  %45 = load i64, ptr %7, align 8
  %46 = load i64, ptr %8, align 8
  %47 = call noundef double @_ZNK8G1Policy20predict_base_time_msEmmm(ptr noundef nonnull align 8 dereferenceable(552) %22, i64 noundef %44, i64 noundef %45, i64 noundef %46)
  store double %47, ptr %18, align 8
  %48 = call noundef double @_ZNK8G1Policy34predict_retained_regions_evac_timeEv(ptr noundef nonnull align 8 dereferenceable(552) %22)
  store double %48, ptr %19, align 8
  %49 = load double, ptr %18, align 8
  %50 = load double, ptr %19, align 8
  %51 = fadd double %49, %50
  store double %51, ptr %20, align 8
  %52 = call noundef zeroext i1 @_ZN7LogImplILN6LogTag4typeE49ELS1_40ELS1_52ELS1_0ELS1_0ELS1_0EE8is_levelEN8LogLevel4typeE(i32 noundef 1)
  br i1 %52, label %54, label %53

53:                                               ; preds = %42
  br label %58

54:                                               ; preds = %42
  %55 = load double, ptr %20, align 8
  %56 = load double, ptr %18, align 8
  %57 = load double, ptr %19, align 8
  call void (ptr, ...) @_ZN7LogImplILN6LogTag4typeE49ELS1_40ELS1_52ELS1_0ELS1_0ELS1_0EE5writeILN8LogLevel4typeE1EEEvPKcz(ptr noundef @.str.5, double noundef %55, double noundef %56, double noundef %57)
  br label %58

58:                                               ; preds = %54, %53
  %59 = load double, ptr %20, align 8
  %60 = load i32, ptr %13, align 4
  %61 = load i32, ptr %11, align 4
  %62 = sub i32 %60, %61
  %63 = load i32, ptr %14, align 4
  %64 = load i32, ptr %11, align 4
  %65 = sub i32 %63, %64
  %66 = call noundef i32 @_ZNK8G1Policy38calculate_desired_eden_length_by_pauseEdjj(ptr noundef nonnull align 8 dereferenceable(552) %22, double noundef %59, i32 noundef %62, i32 noundef %65)
  store i32 %66, ptr %16, align 4
  %67 = load i32, ptr %16, align 4
  %68 = load i32, ptr %15, align 4
  %69 = call noundef i32 @_Z4MAX2IjET_S0_S0_(i32 noundef %67, i32 noundef %68)
  store i32 %69, ptr %21, align 4
  %70 = load i32, ptr %21, align 4
  %71 = load i32, ptr %11, align 4
  %72 = add i32 %70, %71
  store i32 %72, ptr %17, align 4
  br label %75

73:                                               ; preds = %4
  %74 = load i32, ptr %9, align 4
  store i32 %74, ptr %17, align 4
  br label %75

75:                                               ; preds = %73, %58
  %76 = load i32, ptr %17, align 4
  %77 = load i32, ptr %13, align 4
  %78 = load i32, ptr %14, align 4
  %79 = call noundef i32 @_Z5clampIjET_S0_S0_S0_(i32 noundef %76, i32 noundef %77, i32 noundef %78)
  store i32 %79, ptr %17, align 4
  %80 = call noundef zeroext i1 @_ZN7LogImplILN6LogTag4typeE49ELS1_40ELS1_52ELS1_0ELS1_0ELS1_0EE8is_levelEN8LogLevel4typeE(i32 noundef 1)
  br i1 %80, label %82, label %81

81:                                               ; preds = %75
  br label %90

82:                                               ; preds = %75
  %83 = load i32, ptr %17, align 4
  %84 = load i32, ptr %11, align 4
  %85 = load i32, ptr %12, align 4
  %86 = load i32, ptr %13, align 4
  %87 = load i32, ptr %14, align 4
  %88 = load i32, ptr %15, align 4
  %89 = load i32, ptr %16, align 4
  call void (ptr, ...) @_ZN7LogImplILN6LogTag4typeE49ELS1_40ELS1_52ELS1_0ELS1_0ELS1_0EE5writeILN8LogLevel4typeE1EEEvPKcz(ptr noundef @.str.6, i32 noundef %83, i32 noundef %84, i32 noundef %85, i32 noundef %86, i32 noundef %87, i32 noundef %88, i32 noundef %89)
  br label %90

90:                                               ; preds = %82, %81
  %91 = load i32, ptr %17, align 4
  ret i32 %91
}