; Function Attrs: mustprogress nounwind uwtable
define hidden noundef i32 @_ZNK8G1Policy30calculate_young_desired_lengthEmmm(ptr noundef nonnull align 8 dereferenceable(552) %0, i64 noundef %1, i64 noundef %2, i64 noundef %3) local_unnamed_addr #1 align 2 {
  %5 = getelementptr inbounds i8, ptr %0, i64 168
  %6 = load i32, ptr %5, align 8
  %7 = getelementptr inbounds i8, ptr %0, i64 172
  %8 = load i32, ptr %7, align 4
  %9 = getelementptr inbounds i8, ptr %0, i64 240
  %10 = load ptr, ptr %9, align 8
  %11 = getelementptr inbounds i8, ptr %10, i64 1016
  %12 = tail call noundef i32 @_ZNK17G1SurvivorRegions6lengthEv(ptr noundef nonnull align 8 dereferenceable(32) %11) #18
  %13 = load ptr, ptr %9, align 8
  %14 = getelementptr inbounds i8, ptr %13, i64 984
  %15 = load i32, ptr %14, align 8
  %16 = getelementptr inbounds i8, ptr %13, i64 1016
  %17 = tail call noundef i32 @_ZNK17G1SurvivorRegions6lengthEv(ptr noundef nonnull align 8 dereferenceable(32) %16) #18
  %18 = add i32 %17, %15
  %19 = add i32 %12, 1
  %20 = tail call noundef i32 @llvm.umax.i32(i32 %6, i32 %19)
  %21 = tail call noundef i32 @llvm.umax.i32(i32 %20, i32 %18)
  %22 = tail call noundef i32 @llvm.umax.i32(i32 %8, i32 %21)
  %23 = getelementptr inbounds i8, ptr %0, i64 164
  %24 = load i8, ptr %23, align 4
  %25 = trunc i8 %24 to i1
  br i1 %25, label %26, label %51

26:                                               ; preds = %4
  %27 = tail call noundef double @_ZN2os11elapsedTimeEv() #18
  %28 = getelementptr inbounds i8, ptr %0, i64 32
  %29 = load ptr, ptr %28, align 8
  %30 = getelementptr inbounds i8, ptr %29, i64 8
  %31 = load double, ptr %30, align 8
  %32 = tail call noundef double @_ZNK12G1MMUTracker8when_secEdd(ptr noundef nonnull align 8 dereferenceable(1052) %29, double noundef %27, double noundef %31) #18
  %33 = fmul double %32, 1.000000e+03
  %34 = getelementptr inbounds i8, ptr %0, i64 16
  %35 = load ptr, ptr %34, align 8
  %36 = tail call noundef double @_ZNK11G1Analytics21predict_alloc_rate_msEv(ptr noundef nonnull align 8 dereferenceable(2048) %35) #18
  %37 = fmul double %33, %36
  %38 = tail call double @llvm.ceil.f64(double %37)
  %39 = fptoui double %38 to i32
  %40 = tail call noundef double @_ZNK8G1Policy20predict_base_time_msEmmm(ptr noundef nonnull align 8 dereferenceable(552) %0, i64 noundef %1, i64 noundef %2, i64 noundef %3)
  %41 = tail call noundef double @_ZNK8G1Policy34predict_retained_regions_evac_timeEv(ptr noundef nonnull align 8 dereferenceable(552) %0)
  %42 = fadd double %40, %41
  %43 = load volatile ptr, ptr getelementptr inbounds (i8, ptr @_ZN16LogTagSetMappingILN6LogTag4typeE49ELS1_40ELS1_52ELS1_0ELS1_0ELS1_0EE7_tagsetE, i64 48), align 8
  %.not = icmp eq ptr %43, null
  br i1 %.not, label %45, label %44

44:                                               ; preds = %26
  tail call void (ptr, ...) @_ZN7LogImplILN6LogTag4typeE49ELS1_40ELS1_52ELS1_0ELS1_0ELS1_0EE5writeILN8LogLevel4typeE1EEEvPKcz(ptr noundef nonnull @.str.5, double noundef %42, double noundef %40, double noundef %41)
  br label %45

45:                                               ; preds = %26, %44
  %46 = sub i32 %21, %12
  %47 = sub i32 %22, %12
  %48 = tail call noundef i32 @_ZNK8G1Policy38calculate_desired_eden_length_by_pauseEdjj(ptr noundef nonnull align 8 dereferenceable(552) %0, double noundef %42, i32 noundef %46, i32 noundef %47)
  %49 = tail call noundef i32 @llvm.umax.i32(i32 %48, i32 %39)
  %50 = add i32 %49, %12
  br label %51

51:                                               ; preds = %4, %45
  %.035 = phi i32 [ %50, %45 ], [ %6, %4 ]
  %.034 = phi i32 [ %48, %45 ], [ 0, %4 ]
  %.0 = phi i32 [ %39, %45 ], [ 0, %4 ]
  %52 = tail call noundef i32 @llvm.umax.i32(i32 %.035, i32 %21)
  %53 = tail call noundef i32 @llvm.umin.i32(i32 %52, i32 %22)
  %54 = load volatile ptr, ptr getelementptr inbounds (i8, ptr @_ZN16LogTagSetMappingILN6LogTag4typeE49ELS1_40ELS1_52ELS1_0ELS1_0ELS1_0EE7_tagsetE, i64 48), align 8
  %.not36 = icmp eq ptr %54, null
  br i1 %.not36, label %56, label %55

55:                                               ; preds = %51
  tail call void (ptr, ...) @_ZN7LogImplILN6LogTag4typeE49ELS1_40ELS1_52ELS1_0ELS1_0ELS1_0EE5writeILN8LogLevel4typeE1EEEvPKcz(ptr noundef nonnull @.str.6, i32 noundef %53, i32 noundef %12, i32 noundef %18, i32 noundef %21, i32 noundef %22, i32 noundef %.0, i32 noundef %.034)
  br label %56

56:                                               ; preds = %51, %55
  ret i32 %53
}